target datalayout = "e-m:e-p270:32:32-p271:32:32-p272:64:64-i64:64-i128:128-f80:128-n8:16:32:64-S128"
target triple = "x86_64-pc-linux-gnu"

%struct.Gia_Man_t_ = type { ptr, ptr, i32, i32, i32, i32, ptr, ptr, i32, i32, i32, ptr, ptr, %struct.Vec_Int_t_, %struct.Vec_Int_t_, i32, i32, i32, %struct.Vec_Int_t_, ptr, ptr, ptr, i32, i32, i32, i32, ptr, ptr, ptr, ptr, ptr, i32, i32, ptr, i32, ptr, ptr, ptr, ptr, ptr, ptr, ptr, ptr, ptr, ptr, ptr, ptr, ptr, ptr, ptr, ptr, ptr, ptr, %struct.Vec_Int_t_, %struct.Vec_Int_t_, ptr, ptr, ptr, ptr, ptr, ptr, ptr, ptr, ptr, ptr, ptr, ptr, ptr, ptr, ptr, ptr, ptr, ptr, ptr, ptr, ptr, i32, float, float, ptr, ptr, i32, ptr, ptr, ptr, ptr, ptr, ptr, ptr, ptr, ptr, ptr, ptr, ptr, ptr, ptr, ptr, i64, i64, ptr, ptr, i32, i32, i32, i32, i32, i32, i32, i32, i32, i32, i32, i32, ptr, ptr, ptr, ptr, ptr, ptr, ptr, ptr, i32, i32, i32, ptr, i32, i32, ptr, ptr, ptr, ptr, ptr, ptr, i32, i32, ptr, %struct.Vec_Int_t_, %struct.Vec_Int_t_, %struct.Vec_Int_t_, ptr, ptr, ptr }
%struct.Vec_Int_t_ = type { i32, i32, ptr }
%struct.Gia_Obj_t_ = type <{ i64, i32 }>
%struct.Bmcs_Man_t_ = type { ptr, ptr, ptr, ptr, %struct.Vec_Ptr_t_, %struct.Vec_Int_t_, %struct.Vec_Int_t_, [100 x ptr], i32, i32, i32, i64, i64, i64, i64 }
%struct.Vec_Ptr_t_ = type { i32, i32, ptr }
%struct.Cnf_Dat_t_ = type { ptr, i32, i32, i32, ptr, ptr, ptr, ptr, ptr, ptr }
%struct.timespec = type { i64, i64 }

; Function Attrs: nounwind uwtable
define internal i32 @Abc_Var2Lit(i32 noundef %0, i32 noundef %1) #0 {
  %3 = alloca i32, align 4
  %4 = alloca i32, align 4
  store i32 %0, ptr %3, align 4
  store i32 %1, ptr %4, align 4
  %5 = load i32, ptr %3, align 4
  %6 = load i32, ptr %3, align 4
  %7 = add nsw i32 %5, %6
  %8 = load i32, ptr %4, align 4
  %9 = add nsw i32 %7, %8
  ret i32 %9
}

; Function Attrs: nounwind uwtable
define internal i32 @Abc_LitIsCompl(i32 noundef %0) #0 {
  %2 = alloca i32, align 4
  store i32 %0, ptr %2, align 4
  %3 = load i32, ptr %2, align 4
  %4 = and i32 %3, 1
  ret i32 %4
}

; Function Attrs: nounwind uwtable
define internal i32 @Abc_Lit2Var(i32 noundef %0) #0 {
  %2 = alloca i32, align 4
  store i32 %0, ptr %2, align 4
  %3 = load i32, ptr %2, align 4
  %4 = ashr i32 %3, 1
  ret i32 %4
}

; Function Attrs: nounwind uwtable
define internal i32 @Abc_Lit2LitV(ptr noundef %0, i32 noundef %1) #0 {
  %3 = alloca ptr, align 8
  %4 = alloca i32, align 4
  store ptr %0, ptr %3, align 8
  store i32 %1, ptr %4, align 4
  %5 = load ptr, ptr %3, align 8
  %6 = load i32, ptr %4, align 4
  %7 = call i32 @Abc_Lit2Var(i32 noundef %6)
  %8 = sext i32 %7 to i64
  %9 = getelementptr inbounds i32, ptr %5, i64 %8
  %10 = load i32, ptr %9, align 4
  %11 = load i32, ptr %4, align 4
  %12 = call i32 @Abc_LitIsCompl(i32 noundef %11)
  %13 = call i32 @Abc_Var2Lit(i32 noundef %10, i32 noundef %12)
  ret i32 %13
}

; Function Attrs: nounwind uwtable
define internal void @Vec_IntWriteEntry(ptr noundef %0, i32 noundef %1, i32 noundef %2) #0 {
  %4 = alloca ptr, align 8
  %5 = alloca i32, align 4
  %6 = alloca i32, align 4
  store ptr %0, ptr %4, align 8
  store i32 %1, ptr %5, align 4
  store i32 %2, ptr %6, align 4
  %7 = load i32, ptr %6, align 4
  %8 = load ptr, ptr %4, align 8
  %9 = getelementptr inbounds %struct.Vec_Int_t_, ptr %8, i32 0, i32 2
  %10 = load ptr, ptr %9, align 8
  %11 = load i32, ptr %5, align 4
  %12 = sext i32 %11 to i64
  %13 = getelementptr inbounds i32, ptr %10, i64 %12
  store i32 %7, ptr %13, align 4
  ret void
}

; Function Attrs: nounwind uwtable
define internal i32 @Vec_IntEntry(ptr noundef %0, i32 noundef %1) #0 {
  %3 = alloca ptr, align 8
  %4 = alloca i32, align 4
  store ptr %0, ptr %3, align 8
  store i32 %1, ptr %4, align 4
  %5 = load ptr, ptr %3, align 8
  %6 = getelementptr inbounds %struct.Vec_Int_t_, ptr %5, i32 0, i32 2
  %7 = load ptr, ptr %6, align 8
  %8 = load i32, ptr %4, align 4
  %9 = sext i32 %8 to i64
  %10 = getelementptr inbounds i32, ptr %7, i64 %9
  %11 = load i32, ptr %10, align 4
  ret i32 %11
}

; Function Attrs: nounwind uwtable
define internal i32 @Gia_ObjIsCi(ptr noundef %0) #0 {
  %2 = alloca ptr, align 8
  store ptr %0, ptr %2, align 8
  %3 = load ptr, ptr %2, align 8
  %4 = load i64, ptr %3, align 4
  %5 = lshr i64 %4, 31
  %6 = and i64 %5, 1
  %7 = trunc i64 %6 to i32
  %8 = icmp ne i32 %7, 0
  br i1 %8, label %9, label %15

9:                                                ; preds = %1
  %10 = load ptr, ptr %2, align 8
  %11 = load i64, ptr %10, align 4
  %12 = and i64 %11, 536870911
  %13 = trunc i64 %12 to i32
  %14 = icmp eq i32 %13, 536870911
  br label %15

15:                                               ; preds = %9, %1
  %16 = phi i1 [ false, %1 ], [ %14, %9 ]
  %17 = zext i1 %16 to i32
  ret i32 %17
}

; Function Attrs: nounwind uwtable
define internal ptr @Gia_ManObj(ptr noundef %0, i32 noundef %1) #0 {
  %3 = alloca ptr, align 8
  %4 = alloca i32, align 4
  store ptr %0, ptr %3, align 8
  store i32 %1, ptr %4, align 4
  %5 = load ptr, ptr %3, align 8
  %6 = getelementptr inbounds %struct.Gia_Man_t_, ptr %5, i32 0, i32 6
  %7 = load ptr, ptr %6, align 8
  %8 = load i32, ptr %4, align 4
  %9 = sext i32 %8 to i64
  %10 = getelementptr inbounds %struct.Gia_Obj_t_, ptr %7, i64 %9
  ret ptr %10
}

; Function Attrs: nounwind uwtable
define internal i32 @Gia_ManObjNum(ptr noundef %0) #0 {
  %2 = alloca ptr, align 8
  store ptr %0, ptr %2, align 8
  %3 = load ptr, ptr %2, align 8
  %4 = getelementptr inbounds %struct.Gia_Man_t_, ptr %3, i32 0, i32 4
  %5 = load i32, ptr %4, align 8
  ret i32 %5
}

; Function Attrs: nounwind uwtable
define internal i64 @Abc_Clock() #0 {
  %1 = alloca i64, align 8
  %2 = alloca %struct.timespec, align 8
  %3 = alloca i64, align 8
  %4 = call i32 @clock_gettime(i32 noundef 1, ptr noundef %2) #14
  %5 = icmp slt i32 %4, 0
  br i1 %5, label %6, label %7

6:                                                ; preds = %0
  store i64 -1, ptr %1, align 8
  br label %18

7:                                                ; preds = %0
  %8 = getelementptr inbounds %struct.timespec, ptr %2, i32 0, i32 0
  %9 = load i64, ptr %8, align 8
  %10 = mul nsw i64 %9, 1000000
  store i64 %10, ptr %3, align 8
  %11 = getelementptr inbounds %struct.timespec, ptr %2, i32 0, i32 1
  %12 = load i64, ptr %11, align 8
  %13 = mul nsw i64 %12, 1000000
  %14 = sdiv i64 %13, 1000000000
  %15 = load i64, ptr %3, align 8
  %16 = add nsw i64 %15, %14
  store i64 %16, ptr %3, align 8
  %17 = load i64, ptr %3, align 8
  store i64 %17, ptr %1, align 8
  br label %18

18:                                               ; preds = %7, %6
  %19 = load i64, ptr %1, align 8
  ret i64 %19
}

; Function Attrs: nounwind uwtable
define ptr @Bmcs_ManAddNewCnf(ptr noundef %0, i32 noundef %1, i32 noundef %2) #0 {
  %4 = alloca ptr, align 8
  %5 = alloca ptr, align 8
  %6 = alloca i32, align 4
  %7 = alloca i32, align 4
  %8 = alloca i64, align 8
  %9 = alloca ptr, align 8
  %10 = alloca ptr, align 8
  %11 = alloca ptr, align 8
  %12 = alloca i32, align 4
  %13 = alloca i32, align 4
  %14 = alloca ptr, align 8
  store ptr %0, ptr %5, align 8
  store i32 %1, ptr %6, align 4
  store i32 %2, ptr %7, align 4
  %15 = call i64 @Abc_Clock()
  store i64 %15, ptr %8, align 8
  %16 = load ptr, ptr %5, align 8
  %17 = load i32, ptr %6, align 4
  %18 = load i32, ptr %7, align 4
  %19 = call ptr @Bmcs_ManUnfold(ptr noundef %16, i32 noundef %17, i32 noundef %18)
  store ptr %19, ptr %9, align 8
  %20 = call i64 @Abc_Clock()
  %21 = load i64, ptr %8, align 8
  %22 = sub nsw i64 %20, %21
  %23 = load ptr, ptr %5, align 8
  %24 = getelementptr inbounds %struct.Bmcs_Man_t_, ptr %23, i32 0, i32 11
  %25 = load i64, ptr %24, align 8
  %26 = add nsw i64 %25, %22
  store i64 %26, ptr %24, align 8
  %27 = load ptr, ptr %9, align 8
  %28 = icmp eq ptr %27, null
  br i1 %28, label %29, label %30

29:                                               ; preds = %3
  store ptr null, ptr %4, align 8
  br label %146

30:                                               ; preds = %3
  %31 = call i64 @Abc_Clock()
  store i64 %31, ptr %8, align 8
  %32 = load ptr, ptr %9, align 8
  %33 = call ptr @Mf_ManGenerateCnf(ptr noundef %32, i32 noundef 8, i32 noundef 1, i32 noundef 0, i32 noundef 0, i32 noundef 0)
  store ptr %33, ptr %10, align 8
  %34 = load ptr, ptr %9, align 8
  %35 = call i32 @Gia_ManObjNum(ptr noundef %34)
  %36 = sext i32 %35 to i64
  %37 = mul i64 4, %36
  %38 = call noalias ptr @malloc(i64 noundef %37) #12
  %39 = load ptr, ptr %9, align 8
  %40 = call i32 @Gia_ManObjNum(ptr noundef %39)
  %41 = sext i32 %40 to i64
  %42 = mul i64 4, %41
  call void @llvm.memset.p0.i64(ptr align 1 %38, i8 -1, i64 %42, i1 false)
  store ptr %38, ptr %14, align 8
  %43 = load ptr, ptr %14, align 8
  %44 = getelementptr inbounds i32, ptr %43, i64 0
  store i32 0, ptr %44, align 4
  store i32 1, ptr %12, align 4
  br label %45

45:                                               ; preds = %97, %30
  %46 = load i32, ptr %12, align 4
  %47 = load ptr, ptr %9, align 8
  %48 = getelementptr inbounds %struct.Gia_Man_t_, ptr %47, i32 0, i32 4
  %49 = load i32, ptr %48, align 8
  %50 = icmp slt i32 %46, %49
  br i1 %50, label %51, label %56

51:                                               ; preds = %45
  %52 = load ptr, ptr %9, align 8
  %53 = load i32, ptr %12, align 4
  %54 = call ptr @Gia_ManObj(ptr noundef %52, i32 noundef %53)
  store ptr %54, ptr %11, align 8
  %55 = icmp ne ptr %54, null
  br label %56

56:                                               ; preds = %51, %45
  %57 = phi i1 [ false, %45 ], [ %55, %51 ]
  br i1 %57, label %58, label %100

58:                                               ; preds = %56
  %59 = load ptr, ptr %10, align 8
  %60 = getelementptr inbounds %struct.Cnf_Dat_t_, ptr %59, i32 0, i32 7
  %61 = load ptr, ptr %60, align 8
  %62 = load i32, ptr %12, align 4
  %63 = sext i32 %62 to i64
  %64 = getelementptr inbounds i32, ptr %61, i64 %63
  %65 = load i32, ptr %64, align 4
  %66 = icmp sle i32 %65, 0
  br i1 %66, label %67, label %72

67:                                               ; preds = %58
  %68 = load ptr, ptr %11, align 8
  %69 = call i32 @Gia_ObjIsCi(ptr noundef %68)
  %70 = icmp ne i32 %69, 0
  br i1 %70, label %72, label %71

71:                                               ; preds = %67
  br label %97

72:                                               ; preds = %67, %58
  %73 = load ptr, ptr %5, align 8
  %74 = getelementptr inbounds %struct.Bmcs_Man_t_, ptr %73, i32 0, i32 5
  %75 = load ptr, ptr %11, align 8
  %76 = getelementptr inbounds %struct.Gia_Obj_t_, ptr %75, i32 0, i32 1
  %77 = load i32, ptr %76, align 4
  %78 = call i32 @Vec_IntEntry(ptr noundef %74, i32 noundef %77)
  store i32 %78, ptr %13, align 4
  %79 = load i32, ptr %13, align 4
  %80 = icmp eq i32 %79, -1
  br i1 %80, label %81, label %91

81:                                               ; preds = %72
  %82 = load ptr, ptr %5, align 8
  %83 = getelementptr inbounds %struct.Bmcs_Man_t_, ptr %82, i32 0, i32 5
  %84 = load ptr, ptr %11, align 8
  %85 = getelementptr inbounds %struct.Gia_Obj_t_, ptr %84, i32 0, i32 1
  %86 = load i32, ptr %85, align 4
  %87 = load ptr, ptr %5, align 8
  %88 = getelementptr inbounds %struct.Bmcs_Man_t_, ptr %87, i32 0, i32 8
  %89 = load i32, ptr %88, align 8
  %90 = add nsw i32 %89, 1
  store i32 %90, ptr %88, align 8
  store i32 %89, ptr %13, align 4
  call void @Vec_IntWriteEntry(ptr noundef %83, i32 noundef %86, i32 noundef %89)
  br label %91

91:                                               ; preds = %81, %72
  %92 = load i32, ptr %13, align 4
  %93 = load ptr, ptr %14, align 8
  %94 = load i32, ptr %12, align 4
  %95 = sext i32 %94 to i64
  %96 = getelementptr inbounds i32, ptr %93, i64 %95
  store i32 %92, ptr %96, align 4
  br label %97

97:                                               ; preds = %91, %71
  %98 = load i32, ptr %12, align 4
  %99 = add nsw i32 %98, 1
  store i32 %99, ptr %12, align 4
  br label %45, !llvm.loop !33

100:                                              ; preds = %56
  %101 = load ptr, ptr %9, align 8
  call void @Gia_ManStop(ptr noundef %101)
  store i32 0, ptr %12, align 4
  br label %102

102:                                              ; preds = %128, %100
  %103 = load i32, ptr %12, align 4
  %104 = load ptr, ptr %10, align 8
  %105 = getelementptr inbounds %struct.Cnf_Dat_t_, ptr %104, i32 0, i32 2
  %106 = load i32, ptr %105, align 4
  %107 = icmp slt i32 %103, %106
  br i1 %107, label %108, label %131

108:                                              ; preds = %102
  %109 = load ptr, ptr %14, align 8
  %110 = load ptr, ptr %10, align 8
  %111 = getelementptr inbounds %struct.Cnf_Dat_t_, ptr %110, i32 0, i32 4
  %112 = load ptr, ptr %111, align 8
  %113 = getelementptr inbounds ptr, ptr %112, i64 0
  %114 = load ptr, ptr %113, align 8
  %115 = load i32, ptr %12, align 4
  %116 = sext i32 %115 to i64
  %117 = getelementptr inbounds i32, ptr %114, i64 %116
  %118 = load i32, ptr %117, align 4
  %119 = call i32 @Abc_Lit2LitV(ptr noundef %109, i32 noundef %118)
  %120 = load ptr, ptr %10, align 8
  %121 = getelementptr inbounds %struct.Cnf_Dat_t_, ptr %120, i32 0, i32 4
  %122 = load ptr, ptr %121, align 8
  %123 = getelementptr inbounds ptr, ptr %122, i64 0
  %124 = load ptr, ptr %123, align 8
  %125 = load i32, ptr %12, align 4
  %126 = sext i32 %125 to i64
  %127 = getelementptr inbounds i32, ptr %124, i64 %126
  store i32 %119, ptr %127, align 4
  br label %128

128:                                              ; preds = %108
  %129 = load i32, ptr %12, align 4
  %130 = add nsw i32 %129, 1
  store i32 %130, ptr %12, align 4
  br label %102, !llvm.loop !34

131:                                              ; preds = %102
  %132 = load ptr, ptr %14, align 8
  %133 = icmp ne ptr %132, null
  br i1 %133, label %134, label %136

134:                                              ; preds = %131
  %135 = load ptr, ptr %14, align 8
  call void @free(ptr noundef %135) #14
  store ptr null, ptr %14, align 8
  br label %137

136:                                              ; preds = %131
  br label %137

137:                                              ; preds = %136, %134
  %138 = call i64 @Abc_Clock()
  %139 = load i64, ptr %8, align 8
  %140 = sub nsw i64 %138, %139
  %141 = load ptr, ptr %5, align 8
  %142 = getelementptr inbounds %struct.Bmcs_Man_t_, ptr %141, i32 0, i32 12
  %143 = load i64, ptr %142, align 8
  %144 = add nsw i64 %143, %140
  store i64 %144, ptr %142, align 8
  %145 = load ptr, ptr %10, align 8
  store ptr %145, ptr %4, align 8
  br label %146

146:                                              ; preds = %137, %29
  %147 = load ptr, ptr %4, align 8
  ret ptr %147
}