; Function Attrs: nounwind uwtable
define ptr @Bmcs_ManAddNewCnf(ptr noundef %0, i32 noundef %1, i32 noundef %2) local_unnamed_addr #0 {
  %4 = alloca %struct.timespec, align 8
  %5 = alloca %struct.timespec, align 8
  %6 = alloca %struct.timespec, align 8
  %7 = alloca %struct.timespec, align 8
  call void @llvm.lifetime.start.p0(i64 16, ptr nonnull %7)
  %8 = call i32 @clock_gettime(i32 noundef 1, ptr noundef nonnull %7) #23
  %9 = icmp slt i32 %8, 0
  br i1 %9, label %Abc_Clock.exit, label %10

10:                                               ; preds = %3
  %11 = load i64, ptr %7, align 8
  %.neg58 = mul i64 %11, -1000000
  %12 = getelementptr inbounds nuw i8, ptr %7, i64 8
  %13 = load i64, ptr %12, align 8
  %.neg = sdiv i64 %13, -1000
  %.neg59 = add i64 %.neg, %.neg58
  br label %Abc_Clock.exit

Abc_Clock.exit:                                   ; preds = %3, %10
  %.0.i.neg = phi i64 [ %.neg59, %10 ], [ 1, %3 ]
  call void @llvm.lifetime.end.p0(i64 16, ptr nonnull %7)
  %14 = call ptr @Bmcs_ManUnfold(ptr noundef %0, i32 noundef %1, i32 noundef %2)
  call void @llvm.lifetime.start.p0(i64 16, ptr nonnull %6)
  %15 = call i32 @clock_gettime(i32 noundef 1, ptr noundef nonnull %6) #23
  %16 = icmp slt i32 %15, 0
  br i1 %16, label %Abc_Clock.exit53, label %17

17:                                               ; preds = %Abc_Clock.exit
  %18 = load i64, ptr %6, align 8
  %19 = mul nsw i64 %18, 1000000
  %20 = getelementptr inbounds nuw i8, ptr %6, i64 8
  %21 = load i64, ptr %20, align 8
  %22 = sdiv i64 %21, 1000
  %23 = add nsw i64 %22, %19
  br label %Abc_Clock.exit53

Abc_Clock.exit53:                                 ; preds = %Abc_Clock.exit, %17
  %.0.i52 = phi i64 [ %23, %17 ], [ -1, %Abc_Clock.exit ]
  call void @llvm.lifetime.end.p0(i64 16, ptr nonnull %6)
  %24 = add i64 %.0.i52, %.0.i.neg
  %25 = getelementptr inbounds nuw i8, ptr %0, i64 896
  %26 = load i64, ptr %25, align 8
  %27 = add nsw i64 %24, %26
  store i64 %27, ptr %25, align 8
  %28 = icmp eq ptr %14, null
  br i1 %28, label %103, label %29

29:                                               ; preds = %Abc_Clock.exit53
  call void @llvm.lifetime.start.p0(i64 16, ptr nonnull %5)
  %30 = call i32 @clock_gettime(i32 noundef 1, ptr noundef nonnull %5) #23
  %31 = icmp slt i32 %30, 0
  br i1 %31, label %Abc_Clock.exit55, label %32

32:                                               ; preds = %29
  %33 = load i64, ptr %5, align 8
  %.neg61 = mul i64 %33, -1000000
  %34 = getelementptr inbounds nuw i8, ptr %5, i64 8
  %35 = load i64, ptr %34, align 8
  %.neg60 = sdiv i64 %35, -1000
  %.neg62 = add i64 %.neg60, %.neg61
  br label %Abc_Clock.exit55

Abc_Clock.exit55:                                 ; preds = %29, %32
  %.0.i54.neg = phi i64 [ %.neg62, %32 ], [ 1, %29 ]
  call void @llvm.lifetime.end.p0(i64 16, ptr nonnull %5)
  %36 = call ptr @Mf_ManGenerateCnf(ptr noundef nonnull %14, i32 noundef 8, i32 noundef 1, i32 noundef 0, i32 noundef 0, i32 noundef 0) #23
  %37 = getelementptr i8, ptr %14, i64 24
  %.val50 = load i32, ptr %37, align 8
  %38 = sext i32 %.val50 to i64
  %39 = shl nsw i64 %38, 2
  %40 = call noalias ptr @malloc(i64 noundef %39) #22
  call void @llvm.memset.p0.i64(ptr align 1 %40, i8 -1, i64 %39, i1 false)
  store i32 0, ptr %40, align 4
  %41 = icmp sgt i32 %.val50, 1
  br i1 %41, label %.lr.ph, label %.critedge

.lr.ph:                                           ; preds = %Abc_Clock.exit55
  %42 = getelementptr i8, ptr %14, i64 32
  %43 = getelementptr inbounds nuw i8, ptr %36, i64 48
  %44 = getelementptr i8, ptr %0, i64 56
  %45 = getelementptr inbounds nuw i8, ptr %0, i64 880
  br label %46

46:                                               ; preds = %.lr.ph, %67
  %.pre70 = phi i32 [ %.val50, %.lr.ph ], [ %.pre71, %67 ]
  %47 = phi i32 [ %.val50, %.lr.ph ], [ %68, %67 ]
  %indvars.iv = phi i64 [ 1, %.lr.ph ], [ %indvars.iv.next, %67 ]
  %.val = load ptr, ptr %42, align 8
  %48 = getelementptr inbounds nuw %struct.Gia_Obj_t_, ptr %.val, i64 %indvars.iv
  %49 = load ptr, ptr %43, align 8
  %50 = getelementptr inbounds nuw i32, ptr %49, i64 %indvars.iv
  %51 = load i32, ptr %50, align 4
  %52 = icmp slt i32 %51, 1
  br i1 %52, label %53, label %55

53:                                               ; preds = %46
  %.val47 = load i64, ptr %48, align 4
  %54 = and i64 %.val47, 2684354559
  %narrow.i.not = icmp eq i64 %54, 2684354559
  br i1 %narrow.i.not, label %55, label %67

55:                                               ; preds = %53, %46
  %56 = getelementptr inbounds nuw i8, ptr %48, i64 8
  %57 = load i32, ptr %56, align 4
  %.val48 = load ptr, ptr %44, align 8
  %58 = sext i32 %57 to i64
  %59 = getelementptr inbounds i32, ptr %.val48, i64 %58
  %60 = load i32, ptr %59, align 4
  %61 = icmp eq i32 %60, -1
  br i1 %61, label %62, label %65

62:                                               ; preds = %55
  %63 = load i32, ptr %45, align 8
  %64 = add nsw i32 %63, 1
  store i32 %64, ptr %45, align 8
  store i32 %63, ptr %59, align 4
  %.pre.pre = load i32, ptr %37, align 8
  br label %65

65:                                               ; preds = %62, %55
  %.pre = phi i32 [ %.pre.pre, %62 ], [ %.pre70, %55 ]
  %.0 = phi i32 [ %63, %62 ], [ %60, %55 ]
  %66 = getelementptr inbounds nuw i32, ptr %40, i64 %indvars.iv
  store i32 %.0, ptr %66, align 4
  br label %67

67:                                               ; preds = %53, %65
  %.pre71 = phi i32 [ %.pre70, %53 ], [ %.pre, %65 ]
  %68 = phi i32 [ %47, %53 ], [ %.pre, %65 ]
  %indvars.iv.next = add nuw nsw i64 %indvars.iv, 1
  %69 = sext i32 %68 to i64
  %70 = icmp slt i64 %indvars.iv.next, %69
  br i1 %70, label %46, label %.critedge, !llvm.loop !33

.critedge:                                        ; preds = %67, %Abc_Clock.exit55
  call void @Gia_ManStop(ptr noundef nonnull %14) #23
  %71 = getelementptr inbounds nuw i8, ptr %36, i64 12
  %72 = load i32, ptr %71, align 4
  %73 = icmp sgt i32 %72, 0
  br i1 %73, label %.lr.ph65, label %._crit_edge

.lr.ph65:                                         ; preds = %.critedge
  %74 = getelementptr inbounds nuw i8, ptr %36, i64 24
  br label %75

75:                                               ; preds = %.lr.ph65, %75
  %indvars.iv67 = phi i64 [ 0, %.lr.ph65 ], [ %indvars.iv.next68, %75 ]
  %76 = load ptr, ptr %74, align 8
  %77 = load ptr, ptr %76, align 8
  %78 = getelementptr inbounds nuw i32, ptr %77, i64 %indvars.iv67
  %79 = load i32, ptr %78, align 4
  %80 = ashr i32 %79, 1
  %81 = sext i32 %80 to i64
  %82 = getelementptr inbounds i32, ptr %40, i64 %81
  %83 = load i32, ptr %82, align 4
  %84 = and i32 %79, 1
  %85 = shl nsw i32 %83, 1
  %86 = or disjoint i32 %85, %84
  store i32 %86, ptr %78, align 4
  %indvars.iv.next68 = add nuw nsw i64 %indvars.iv67, 1
  %87 = load i32, ptr %71, align 4
  %88 = sext i32 %87 to i64
  %89 = icmp slt i64 %indvars.iv.next68, %88
  br i1 %89, label %75, label %._crit_edge, !llvm.loop !34

._crit_edge:                                      ; preds = %75, %.critedge
  call void @free(ptr noundef %40) #23
  call void @llvm.lifetime.start.p0(i64 16, ptr nonnull %4)
  %90 = call i32 @clock_gettime(i32 noundef 1, ptr noundef nonnull %4) #23
  %91 = icmp slt i32 %90, 0
  br i1 %91, label %Abc_Clock.exit57, label %92

92:                                               ; preds = %._crit_edge
  %93 = load i64, ptr %4, align 8
  %94 = mul nsw i64 %93, 1000000
  %95 = getelementptr inbounds nuw i8, ptr %4, i64 8
  %96 = load i64, ptr %95, align 8
  %97 = sdiv i64 %96, 1000
  %98 = add nsw i64 %97, %94
  br label %Abc_Clock.exit57

Abc_Clock.exit57:                                 ; preds = %._crit_edge, %92
  %.0.i56 = phi i64 [ %98, %92 ], [ -1, %._crit_edge ]
  call void @llvm.lifetime.end.p0(i64 16, ptr nonnull %4)
  %99 = add i64 %.0.i56, %.0.i54.neg
  %100 = getelementptr inbounds nuw i8, ptr %0, i64 904
  %101 = load i64, ptr %100, align 8
  %102 = add nsw i64 %99, %101
  store i64 %102, ptr %100, align 8
  br label %103

103:                                              ; preds = %Abc_Clock.exit53, %Abc_Clock.exit57
  %.042 = phi ptr [ %36, %Abc_Clock.exit57 ], [ null, %Abc_Clock.exit53 ]
  ret ptr %.042
}